target datalayout = "e-m:e-p270:32:32-p271:32:32-p272:64:64-i64:64-i128:128-f80:128-n8:16:32:64-S128"
target triple = "x86_64-pc-linux-gnu"

%"class.cv::bioinspired::RetinaColor" = type <{ ptr, %"class.cv::bioinspired::BasicRetinaFilter", i32, i8, [3 x i8], float, [4 x i8], ptr, ptr, %"class.std::valarray.0", %"class.std::valarray", %"class.std::valarray", %"class.std::valarray", %"class.std::valarray", %"class.std::valarray", %"class.std::valarray", %"class.std::valarray", float, float, float, i8, [3 x i8] }>
%"class.cv::bioinspired::BasicRetinaFilter" = type { %"class.cv::bioinspired::TemplateBuffer", %"class.std::valarray", i32, i32, %"class.std::valarray", %"class.std::valarray", %"class.std::valarray", float, float, float, float, float, float, float, float }
%"class.cv::bioinspired::TemplateBuffer" = type { ptr, %"class.std::valarray", i64, i64, i64, i64, i64 }
%"class.std::valarray.0" = type { i64, ptr }
%"class.std::valarray" = type { i64, ptr }

; Function Attrs: inlinehint mustprogress nounwind uwtable
define linkonce_odr hidden noundef nonnull align 4 dereferenceable(4) ptr @_ZNSt8valarrayIfEixEm(ptr noundef nonnull align 8 dereferenceable(16) %0, i64 noundef %1) #7 comdat align 2 {
  %3 = alloca ptr, align 8
  %4 = alloca i64, align 8
  store ptr %0, ptr %3, align 8, !tbaa !36
  store i64 %1, ptr %4, align 8, !tbaa !33
  %5 = load ptr, ptr %3, align 8
  %6 = getelementptr inbounds nuw %"class.std::valarray", ptr %5, i32 0, i32 1
  %7 = load ptr, ptr %6, align 8, !tbaa !38
  %8 = load i64, ptr %4, align 8, !tbaa !33
  %9 = getelementptr inbounds nuw float, ptr %7, i64 %8
  ret ptr %9
}

; Function Attrs: inlinehint mustprogress nounwind uwtable
define linkonce_odr hidden noundef i32 @_ZN2cv11bioinspired14TemplateBufferIfE11getNBpixelsEv(ptr noundef nonnull align 8 dereferenceable(64) %0) #7 comdat align 2 {
  %2 = alloca ptr, align 8
  store ptr %0, ptr %2, align 8, !tbaa !56
  %3 = load ptr, ptr %2, align 8
  %4 = getelementptr inbounds nuw %"class.cv::bioinspired::TemplateBuffer", ptr %3, i32 0, i32 5
  %5 = load i64, ptr %4, align 8, !tbaa !58
  %6 = trunc i64 %5 to i32
  ret i32 %6
}

; Function Attrs: inlinehint mustprogress nounwind uwtable
define linkonce_odr hidden noundef i32 @_ZN2cv11bioinspired14TemplateBufferIfE12getNBcolumnsEv(ptr noundef nonnull align 8 dereferenceable(64) %0) #7 comdat align 2 {
  %2 = alloca ptr, align 8
  store ptr %0, ptr %2, align 8, !tbaa !56
  %3 = load ptr, ptr %2, align 8
  %4 = getelementptr inbounds nuw %"class.cv::bioinspired::TemplateBuffer", ptr %3, i32 0, i32 3
  %5 = load i64, ptr %4, align 8, !tbaa !57
  %6 = trunc i64 %5 to i32
  ret i32 %6
}

; Function Attrs: inlinehint mustprogress nounwind uwtable
define linkonce_odr hidden noundef i32 @_ZN2cv11bioinspired14TemplateBufferIfE9getNBrowsEv(ptr noundef nonnull align 8 dereferenceable(64) %0) #7 comdat align 2 {
  %2 = alloca ptr, align 8
  store ptr %0, ptr %2, align 8, !tbaa !56
  %3 = load ptr, ptr %2, align 8
  %4 = getelementptr inbounds nuw %"class.cv::bioinspired::TemplateBuffer", ptr %3, i32 0, i32 2
  %5 = load i64, ptr %4, align 8, !tbaa !73
  %6 = trunc i64 %5 to i32
  ret i32 %6
}

; Function Attrs: mustprogress uwtable
define hidden void @_ZN2cv11bioinspired11RetinaColor16_computeGradientEPKf(ptr noundef nonnull align 8 dereferenceable(349) %0, ptr noundef %1) #4 align 2 {
  %3 = alloca ptr, align 8
  %4 = alloca ptr, align 8
  %5 = alloca i32, align 4
  %6 = alloca i32, align 4
  %7 = alloca i32, align 4
  %8 = alloca i32, align 4
  %9 = alloca float, align 4
  %10 = alloca float, align 4
  %11 = alloca float, align 4
  %12 = alloca float, align 4
  %13 = alloca float, align 4
  %14 = alloca float, align 4
  %15 = alloca float, align 4
  %16 = alloca float, align 4
  store ptr %0, ptr %3, align 8, !tbaa !3
  store ptr %1, ptr %4, align 8, !tbaa !39
  %17 = load ptr, ptr %3, align 8
  call void @llvm.lifetime.start.p0(i64 4, ptr %5) #3
  store i32 2, ptr %5, align 4, !tbaa !8
  br label %18

18:                                               ; preds = %195, %2
  %19 = load i32, ptr %5, align 4, !tbaa !8
  %20 = getelementptr inbounds i8, ptr %17, i64 8
  %21 = getelementptr inbounds nuw %"class.cv::bioinspired::BasicRetinaFilter", ptr %20, i32 0, i32 0
  %22 = call noundef i32 @_ZN2cv11bioinspired14TemplateBufferIfE9getNBrowsEv(ptr noundef nonnull align 8 dereferenceable(64) %21)
  %23 = sub i32 %22, 2
  %24 = icmp ult i32 %19, %23
  br i1 %24, label %26, label %25

25:                                               ; preds = %18
  store i32 2, ptr %6, align 4
  call void @llvm.lifetime.end.p0(i64 4, ptr %5) #3
  br label %198

26:                                               ; preds = %18
  call void @llvm.lifetime.start.p0(i64 4, ptr %7) #3
  store i32 2, ptr %7, align 4, !tbaa !8
  br label %27

27:                                               ; preds = %191, %26
  %28 = load i32, ptr %7, align 4, !tbaa !8
  %29 = getelementptr inbounds i8, ptr %17, i64 8
  %30 = getelementptr inbounds nuw %"class.cv::bioinspired::BasicRetinaFilter", ptr %29, i32 0, i32 0
  %31 = call noundef i32 @_ZN2cv11bioinspired14TemplateBufferIfE12getNBcolumnsEv(ptr noundef nonnull align 8 dereferenceable(64) %30)
  %32 = sub i32 %31, 2
  %33 = icmp ult i32 %28, %32
  br i1 %33, label %35, label %34

34:                                               ; preds = %27
  store i32 5, ptr %6, align 4
  call void @llvm.lifetime.end.p0(i64 4, ptr %7) #3
  br label %194

35:                                               ; preds = %27
  call void @llvm.lifetime.start.p0(i64 4, ptr %8) #3
  %36 = load i32, ptr %7, align 4, !tbaa !8
  %37 = getelementptr inbounds i8, ptr %17, i64 8
  %38 = getelementptr inbounds nuw %"class.cv::bioinspired::BasicRetinaFilter", ptr %37, i32 0, i32 0
  %39 = call noundef i32 @_ZN2cv11bioinspired14TemplateBufferIfE12getNBcolumnsEv(ptr noundef nonnull align 8 dereferenceable(64) %38)
  %40 = load i32, ptr %5, align 4, !tbaa !8
  %41 = mul i32 %39, %40
  %42 = add i32 %36, %41
  store i32 %42, ptr %8, align 4, !tbaa !8
  call void @llvm.lifetime.start.p0(i64 4, ptr %9) #3
  %43 = load ptr, ptr %4, align 8, !tbaa !39
  %44 = load i32, ptr %8, align 4, !tbaa !8
  %45 = getelementptr inbounds i8, ptr %17, i64 8
  %46 = getelementptr inbounds nuw %"class.cv::bioinspired::BasicRetinaFilter", ptr %45, i32 0, i32 0
  %47 = call noundef i32 @_ZN2cv11bioinspired14TemplateBufferIfE12getNBcolumnsEv(ptr noundef nonnull align 8 dereferenceable(64) %46)
  %48 = add i32 %44, %47
  %49 = zext i32 %48 to i64
  %50 = getelementptr inbounds nuw float, ptr %43, i64 %49
  %51 = load float, ptr %50, align 4, !tbaa !30
  %52 = load ptr, ptr %4, align 8, !tbaa !39
  %53 = load i32, ptr %8, align 4, !tbaa !8
  %54 = getelementptr inbounds i8, ptr %17, i64 8
  %55 = getelementptr inbounds nuw %"class.cv::bioinspired::BasicRetinaFilter", ptr %54, i32 0, i32 0
  %56 = call noundef i32 @_ZN2cv11bioinspired14TemplateBufferIfE12getNBcolumnsEv(ptr noundef nonnull align 8 dereferenceable(64) %55)
  %57 = sub i32 %53, %56
  %58 = zext i32 %57 to i64
  %59 = getelementptr inbounds nuw float, ptr %52, i64 %58
  %60 = load float, ptr %59, align 4, !tbaa !30
  %61 = fsub float %51, %60
  %62 = fpext float %61 to double
  %63 = call double @llvm.fabs.f64(double %62)
  %64 = fptrunc double %63 to float
  store float %64, ptr %9, align 4, !tbaa !30
  call void @llvm.lifetime.start.p0(i64 4, ptr %10) #3
  %65 = load ptr, ptr %4, align 8, !tbaa !39
  %66 = load i32, ptr %8, align 4, !tbaa !8
  %67 = add i32 %66, 1
  %68 = zext i32 %67 to i64
  %69 = getelementptr inbounds nuw float, ptr %65, i64 %68
  %70 = load float, ptr %69, align 4, !tbaa !30
  %71 = load ptr, ptr %4, align 8, !tbaa !39
  %72 = load i32, ptr %8, align 4, !tbaa !8
  %73 = sub i32 %72, 1
  %74 = zext i32 %73 to i64
  %75 = getelementptr inbounds nuw float, ptr %71, i64 %74
  %76 = load float, ptr %75, align 4, !tbaa !30
  %77 = fsub float %70, %76
  %78 = fpext float %77 to double
  %79 = call double @llvm.fabs.f64(double %78)
  %80 = fptrunc double %79 to float
  store float %80, ptr %10, align 4, !tbaa !30
  call void @llvm.lifetime.start.p0(i64 4, ptr %11) #3
  %81 = load ptr, ptr %4, align 8, !tbaa !39
  %82 = load i32, ptr %8, align 4, !tbaa !8
  %83 = zext i32 %82 to i64
  %84 = getelementptr inbounds nuw float, ptr %81, i64 %83
  %85 = load float, ptr %84, align 4, !tbaa !30
  %86 = load ptr, ptr %4, align 8, !tbaa !39
  %87 = load i32, ptr %8, align 4, !tbaa !8
  %88 = getelementptr inbounds i8, ptr %17, i64 8
  %89 = getelementptr inbounds nuw %"class.cv::bioinspired::BasicRetinaFilter", ptr %88, i32 0, i32 0
  %90 = call noundef i32 @_ZN2cv11bioinspired14TemplateBufferIfE12getNBcolumnsEv(ptr noundef nonnull align 8 dereferenceable(64) %89)
  %91 = mul i32 2, %90
  %92 = sub i32 %87, %91
  %93 = zext i32 %92 to i64
  %94 = getelementptr inbounds nuw float, ptr %86, i64 %93
  %95 = load float, ptr %94, align 4, !tbaa !30
  %96 = fsub float %85, %95
  %97 = fpext float %96 to double
  %98 = call double @llvm.fabs.f64(double %97)
  %99 = fptrunc double %98 to float
  store float %99, ptr %11, align 4, !tbaa !30
  call void @llvm.lifetime.start.p0(i64 4, ptr %12) #3
  %100 = load ptr, ptr %4, align 8, !tbaa !39
  %101 = load i32, ptr %8, align 4, !tbaa !8
  %102 = zext i32 %101 to i64
  %103 = getelementptr inbounds nuw float, ptr %100, i64 %102
  %104 = load float, ptr %103, align 4, !tbaa !30
  %105 = load ptr, ptr %4, align 8, !tbaa !39
  %106 = load i32, ptr %8, align 4, !tbaa !8
  %107 = sub i32 %106, 2
  %108 = zext i32 %107 to i64
  %109 = getelementptr inbounds nuw float, ptr %105, i64 %108
  %110 = load float, ptr %109, align 4, !tbaa !30
  %111 = fsub float %104, %110
  %112 = fpext float %111 to double
  %113 = call double @llvm.fabs.f64(double %112)
  %114 = fptrunc double %113 to float
  store float %114, ptr %12, align 4, !tbaa !30
  call void @llvm.lifetime.start.p0(i64 4, ptr %13) #3
  %115 = load ptr, ptr %4, align 8, !tbaa !39
  %116 = load i32, ptr %8, align 4, !tbaa !8
  %117 = getelementptr inbounds i8, ptr %17, i64 8
  %118 = getelementptr inbounds nuw %"class.cv::bioinspired::BasicRetinaFilter", ptr %117, i32 0, i32 0
  %119 = call noundef i32 @_ZN2cv11bioinspired14TemplateBufferIfE12getNBcolumnsEv(ptr noundef nonnull align 8 dereferenceable(64) %118)
  %120 = mul i32 2, %119
  %121 = add i32 %116, %120
  %122 = zext i32 %121 to i64
  %123 = getelementptr inbounds nuw float, ptr %115, i64 %122
  %124 = load float, ptr %123, align 4, !tbaa !30
  %125 = load ptr, ptr %4, align 8, !tbaa !39
  %126 = load i32, ptr %8, align 4, !tbaa !8
  %127 = zext i32 %126 to i64
  %128 = getelementptr inbounds nuw float, ptr %125, i64 %127
  %129 = load float, ptr %128, align 4, !tbaa !30
  %130 = fsub float %124, %129
  %131 = fpext float %130 to double
  %132 = call double @llvm.fabs.f64(double %131)
  %133 = fptrunc double %132 to float
  store float %133, ptr %13, align 4, !tbaa !30
  call void @llvm.lifetime.start.p0(i64 4, ptr %14) #3
  %134 = load ptr, ptr %4, align 8, !tbaa !39
  %135 = load i32, ptr %8, align 4, !tbaa !8
  %136 = add i32 %135, 2
  %137 = zext i32 %136 to i64
  %138 = getelementptr inbounds nuw float, ptr %134, i64 %137
  %139 = load float, ptr %138, align 4, !tbaa !30
  %140 = load ptr, ptr %4, align 8, !tbaa !39
  %141 = load i32, ptr %8, align 4, !tbaa !8
  %142 = zext i32 %141 to i64
  %143 = getelementptr inbounds nuw float, ptr %140, i64 %142
  %144 = load float, ptr %143, align 4, !tbaa !30
  %145 = fsub float %139, %144
  %146 = fpext float %145 to double
  %147 = call double @llvm.fabs.f64(double %146)
  %148 = fptrunc double %147 to float
  store float %148, ptr %14, align 4, !tbaa !30
  call void @llvm.lifetime.start.p0(i64 4, ptr %15) #3
  %149 = load float, ptr %10, align 4, !tbaa !30
  %150 = load float, ptr %12, align 4, !tbaa !30
  %151 = load float, ptr %14, align 4, !tbaa !30
  %152 = fadd float %150, %151
  %153 = fmul float 2.500000e-01, %152
  %154 = call float @llvm.fmuladd.f32(float 5.000000e-01, float %149, float %153)
  store float %154, ptr %15, align 4, !tbaa !30
  call void @llvm.lifetime.start.p0(i64 4, ptr %16) #3
  %155 = load float, ptr %9, align 4, !tbaa !30
  %156 = load float, ptr %11, align 4, !tbaa !30
  %157 = load float, ptr %13, align 4, !tbaa !30
  %158 = fadd float %156, %157
  %159 = fmul float 2.500000e-01, %158
  %160 = call float @llvm.fmuladd.f32(float 5.000000e-01, float %155, float %159)
  store float %160, ptr %16, align 4, !tbaa !30
  %161 = load float, ptr %15, align 4, !tbaa !30
  %162 = load float, ptr %16, align 4, !tbaa !30
  %163 = fcmp olt float %161, %162
  br i1 %163, label %164, label %177

164:                                              ; preds = %35
  %165 = getelementptr inbounds nuw %"class.cv::bioinspired::RetinaColor", ptr %17, i32 0, i32 16
  %166 = load i32, ptr %8, align 4, !tbaa !8
  %167 = getelementptr inbounds i8, ptr %17, i64 8
  %168 = getelementptr inbounds nuw %"class.cv::bioinspired::BasicRetinaFilter", ptr %167, i32 0, i32 0
  %169 = call noundef i32 @_ZN2cv11bioinspired14TemplateBufferIfE11getNBpixelsEv(ptr noundef nonnull align 8 dereferenceable(64) %168)
  %170 = add i32 %166, %169
  %171 = zext i32 %170 to i64
  %172 = call noundef nonnull align 4 dereferenceable(4) ptr @_ZNSt8valarrayIfEixEm(ptr noundef nonnull align 8 dereferenceable(16) %165, i64 noundef %171) #3
  store float 0x3FAEB851E0000000, ptr %172, align 4, !tbaa !30
  %173 = getelementptr inbounds nuw %"class.cv::bioinspired::RetinaColor", ptr %17, i32 0, i32 16
  %174 = load i32, ptr %8, align 4, !tbaa !8
  %175 = zext i32 %174 to i64
  %176 = call noundef nonnull align 4 dereferenceable(4) ptr @_ZNSt8valarrayIfEixEm(ptr noundef nonnull align 8 dereferenceable(16) %173, i64 noundef %175) #3
  store float 0x3FE23D70A0000000, ptr %176, align 4, !tbaa !30
  br label %190

177:                                              ; preds = %35
  %178 = getelementptr inbounds nuw %"class.cv::bioinspired::RetinaColor", ptr %17, i32 0, i32 16
  %179 = load i32, ptr %8, align 4, !tbaa !8
  %180 = getelementptr inbounds i8, ptr %17, i64 8
  %181 = getelementptr inbounds nuw %"class.cv::bioinspired::BasicRetinaFilter", ptr %180, i32 0, i32 0
  %182 = call noundef i32 @_ZN2cv11bioinspired14TemplateBufferIfE11getNBpixelsEv(ptr noundef nonnull align 8 dereferenceable(64) %181)
  %183 = add i32 %179, %182
  %184 = zext i32 %183 to i64
  %185 = call noundef nonnull align 4 dereferenceable(4) ptr @_ZNSt8valarrayIfEixEm(ptr noundef nonnull align 8 dereferenceable(16) %178, i64 noundef %184) #3
  store float 0x3FE23D70A0000000, ptr %185, align 4, !tbaa !30
  %186 = getelementptr inbounds nuw %"class.cv::bioinspired::RetinaColor", ptr %17, i32 0, i32 16
  %187 = load i32, ptr %8, align 4, !tbaa !8
  %188 = zext i32 %187 to i64
  %189 = call noundef nonnull align 4 dereferenceable(4) ptr @_ZNSt8valarrayIfEixEm(ptr noundef nonnull align 8 dereferenceable(16) %186, i64 noundef %188) #3
  store float 0x3FAEB851E0000000, ptr %189, align 4, !tbaa !30
  br label %190

190:                                              ; preds = %177, %164
  call void @llvm.lifetime.end.p0(i64 4, ptr %16) #3
  call void @llvm.lifetime.end.p0(i64 4, ptr %15) #3
  call void @llvm.lifetime.end.p0(i64 4, ptr %14) #3
  call void @llvm.lifetime.end.p0(i64 4, ptr %13) #3
  call void @llvm.lifetime.end.p0(i64 4, ptr %12) #3
  call void @llvm.lifetime.end.p0(i64 4, ptr %11) #3
  call void @llvm.lifetime.end.p0(i64 4, ptr %10) #3
  call void @llvm.lifetime.end.p0(i64 4, ptr %9) #3
  call void @llvm.lifetime.end.p0(i64 4, ptr %8) #3
  br label %191

191:                                              ; preds = %190
  %192 = load i32, ptr %7, align 4, !tbaa !8
  %193 = add i32 %192, 1
  store i32 %193, ptr %7, align 4, !tbaa !8
  br label %27, !llvm.loop !129

194:                                              ; preds = %34
  br label %195

195:                                              ; preds = %194
  %196 = load i32, ptr %5, align 4, !tbaa !8
  %197 = add i32 %196, 1
  store i32 %197, ptr %5, align 4, !tbaa !8
  br label %18, !llvm.loop !130

198:                                              ; preds = %25
  ret void
}