; Function Attrs: mustprogress nofree norecurse nosync nounwind memory(write, argmem: readwrite, inaccessiblemem: none) uwtable
define hidden void @_ZN2cv11bioinspired11RetinaColor16_computeGradientEPKf(ptr noundef nonnull readonly align 8 captures(none) dereferenceable(349) %0, ptr noundef readonly captures(none) %1) local_unnamed_addr #5 align 2 {
  %3 = getelementptr inbounds nuw i8, ptr %0, i64 32
  %4 = load i64, ptr %3, align 8, !tbaa !150
  %5 = trunc i64 %4 to i32
  %6 = add i32 %5, -2
  %7 = icmp ugt i32 %6, 2
  br i1 %7, label %.preheader.lr.ph, label %._crit_edge45

.preheader.lr.ph:                                 ; preds = %2
  %8 = getelementptr inbounds nuw i8, ptr %0, i64 40
  %9 = load i64, ptr %8, align 8, !tbaa !62
  %10 = trunc i64 %9 to i32
  %11 = add i32 %10, -2
  %12 = icmp ugt i32 %11, 2
  %13 = shl i32 %10, 1
  %14 = getelementptr inbounds nuw i8, ptr %0, i64 56
  %15 = getelementptr inbounds nuw i8, ptr %0, i64 328
  br i1 %12, label %.preheader.us.preheader, label %._crit_edge45

.preheader.us.preheader:                          ; preds = %.preheader.lr.ph
  %wide.trip.count = zext i32 %11 to i64
  br label %.preheader.us

.preheader.us:                                    ; preds = %.preheader.us.preheader, %._crit_edge.us
  %.044.us = phi i32 [ %81, %._crit_edge.us ], [ 2, %.preheader.us.preheader ]
  %16 = mul i32 %.044.us, %10
  %17 = load i64, ptr %14, align 8
  %18 = trunc i64 %17 to i32
  %19 = load ptr, ptr %15, align 8
  br label %20

20:                                               ; preds = %.preheader.us, %20
  %indvars.iv = phi i64 [ 2, %.preheader.us ], [ %indvars.iv.next, %20 ]
  %21 = trunc nuw i64 %indvars.iv to i32
  %22 = add i32 %16, %21
  %23 = add i32 %22, %10
  %24 = zext i32 %23 to i64
  %25 = getelementptr inbounds nuw float, ptr %1, i64 %24
  %26 = load float, ptr %25, align 4, !tbaa !31
  %27 = sub i32 %22, %10
  %28 = zext i32 %27 to i64
  %29 = getelementptr inbounds nuw float, ptr %1, i64 %28
  %30 = load float, ptr %29, align 4, !tbaa !31
  %31 = fsub float %26, %30
  %32 = tail call float @llvm.fabs.f32(float %31)
  %33 = add i32 %22, 1
  %34 = zext i32 %33 to i64
  %35 = getelementptr inbounds nuw float, ptr %1, i64 %34
  %36 = load float, ptr %35, align 4, !tbaa !31
  %37 = add i32 %22, -1
  %38 = zext i32 %37 to i64
  %39 = getelementptr inbounds nuw float, ptr %1, i64 %38
  %40 = load float, ptr %39, align 4, !tbaa !31
  %41 = fsub float %36, %40
  %42 = tail call float @llvm.fabs.f32(float %41)
  %43 = zext i32 %22 to i64
  %44 = getelementptr inbounds nuw float, ptr %1, i64 %43
  %45 = load float, ptr %44, align 4, !tbaa !31
  %46 = sub i32 %22, %13
  %47 = zext i32 %46 to i64
  %48 = getelementptr inbounds nuw float, ptr %1, i64 %47
  %49 = load float, ptr %48, align 4, !tbaa !31
  %50 = fsub float %45, %49
  %51 = tail call float @llvm.fabs.f32(float %50)
  %52 = add i32 %22, -2
  %53 = zext i32 %52 to i64
  %54 = getelementptr inbounds nuw float, ptr %1, i64 %53
  %55 = load float, ptr %54, align 4, !tbaa !31
  %56 = fsub float %45, %55
  %57 = tail call float @llvm.fabs.f32(float %56)
  %58 = add i32 %22, %13
  %59 = zext i32 %58 to i64
  %60 = getelementptr inbounds nuw float, ptr %1, i64 %59
  %61 = load float, ptr %60, align 4, !tbaa !31
  %62 = fsub float %61, %45
  %63 = tail call float @llvm.fabs.f32(float %62)
  %64 = add i32 %22, 2
  %65 = zext i32 %64 to i64
  %66 = getelementptr inbounds nuw float, ptr %1, i64 %65
  %67 = load float, ptr %66, align 4, !tbaa !31
  %68 = fsub float %67, %45
  %69 = tail call float @llvm.fabs.f32(float %68)
  %70 = fadd float %57, %69
  %71 = fmul float %70, 2.500000e-01
  %72 = tail call float @llvm.fmuladd.f32(float %42, float 5.000000e-01, float %71)
  %73 = fadd float %51, %63
  %74 = fmul float %73, 2.500000e-01
  %75 = tail call float @llvm.fmuladd.f32(float %32, float 5.000000e-01, float %74)
  %76 = fcmp olt float %72, %75
  %77 = add i32 %22, %18
  %78 = zext i32 %77 to i64
  %79 = getelementptr inbounds nuw float, ptr %19, i64 %78
  %. = select i1 %76, float 0x3FAEB851E0000000, float 0x3FE23D70A0000000
  %.50 = select i1 %76, float 0x3FE23D70A0000000, float 0x3FAEB851E0000000
  store float %., ptr %79, align 4, !tbaa !31
  %80 = getelementptr inbounds nuw float, ptr %19, i64 %43
  store float %.50, ptr %80, align 4, !tbaa !31
  %indvars.iv.next = add nuw nsw i64 %indvars.iv, 1
  %exitcond.not = icmp eq i64 %indvars.iv.next, %wide.trip.count
  br i1 %exitcond.not, label %._crit_edge.us, label %20, !llvm.loop !206

._crit_edge.us:                                   ; preds = %20
  %81 = add nuw i32 %.044.us, 1
  %exitcond48.not = icmp eq i32 %81, %6
  br i1 %exitcond48.not, label %._crit_edge45, label %.preheader.us, !llvm.loop !207

._crit_edge45:                                    ; preds = %._crit_edge.us, %.preheader.lr.ph, %2
  ret void
}